; Function Attrs: nounwind uwtable
define ptr @Jf_ManDeriveCnf(ptr noundef %0, i32 noundef %1) local_unnamed_addr #0 {
  %3 = alloca %struct.Jf_Par_t_, align 8
  call void @llvm.lifetime.start.p0(i64 264, ptr nonnull %3) #30
  %4 = getelementptr inbounds nuw i8, ptr %3, i64 8
  call void @llvm.memset.p0.i64(ptr noundef nonnull align 8 dereferenceable(264) %4, i8 0, i64 256, i1 false)
  store i32 6, ptr %3, align 8, !tbaa !93
  %5 = getelementptr inbounds nuw i8, ptr %3, i64 4
  store i32 8, ptr %5, align 4, !tbaa !159
  %6 = getelementptr inbounds nuw i8, ptr %3, i64 12
  store i32 1, ptr %6, align 4, !tbaa !189
  %7 = getelementptr inbounds nuw i8, ptr %3, i64 36
  store i32 5, ptr %7, align 4, !tbaa !79
  %8 = getelementptr inbounds nuw i8, ptr %3, i64 52
  store i32 -1, ptr %8, align 4, !tbaa !230
  %9 = getelementptr inbounds nuw i8, ptr %3, i64 56
  store i32 1, ptr %9, align 8, !tbaa !170
  %10 = getelementptr inbounds nuw i8, ptr %3, i64 72
  store i32 1, ptr %10, align 8, !tbaa !200
  %11 = getelementptr inbounds nuw i8, ptr %3, i64 84
  %12 = getelementptr inbounds nuw i8, ptr %3, i64 144
  call void @llvm.memset.p0.i64(ptr noundef nonnull align 4 dereferenceable(16) %11, i8 0, i64 12, i1 false)
  store i32 8, ptr %12, align 8, !tbaa !231
  %13 = getelementptr inbounds nuw i8, ptr %3, i64 148
  store i32 16, ptr %13, align 4, !tbaa !232
  %14 = getelementptr inbounds nuw i8, ptr %3, i64 96
  store i32 1, ptr %14, align 8, !tbaa !85
  %15 = getelementptr inbounds nuw i8, ptr %3, i64 104
  store i32 %1, ptr %15, align 8, !tbaa !218
  %16 = call ptr @Jf_ManPerformMapping(ptr noundef %0, ptr noundef nonnull %3)
  call void @llvm.lifetime.end.p0(i64 264, ptr nonnull %3) #30
  ret ptr %16
}